; Function Attrs: nounwind uwtable
define internal noundef i32 @lj_cf_ffi_errno(ptr noundef %0) #0 {
  %2 = alloca i32, align 4
  %3 = tail call ptr @__errno_location() #11
  %4 = load i32, ptr %3, align 4, !tbaa !43
  %5 = getelementptr inbounds nuw i8, ptr %0, i64 40
  %6 = load ptr, ptr %5, align 8, !tbaa !4
  %7 = getelementptr inbounds nuw i8, ptr %0, i64 32
  %8 = load ptr, ptr %7, align 8, !tbaa !44
  %9 = icmp ugt ptr %6, %8
  br i1 %9, label %ffi_checkint.exit, label %20

ffi_checkint.exit:                                ; preds = %1
  %10 = getelementptr inbounds nuw i8, ptr %0, i64 16
  %11 = load i64, ptr %10, align 8, !tbaa !24
  %12 = inttoptr i64 %11 to ptr
  %13 = getelementptr inbounds nuw i8, ptr %12, i64 384
  %14 = load i64, ptr %13, align 8, !tbaa !41
  %15 = inttoptr i64 %14 to ptr
  %16 = getelementptr inbounds nuw i8, ptr %15, i64 16
  store ptr %0, ptr %16, align 8, !tbaa !42
  call void @llvm.lifetime.start.p0(i64 4, ptr nonnull %2) #9
  %17 = load ptr, ptr %15, align 8, !tbaa !51
  %18 = getelementptr inbounds nuw i8, ptr %17, i64 216
  call void @lj_cconv_ct_tv(ptr noundef nonnull %15, ptr noundef nonnull %18, ptr noundef nonnull %2, ptr noundef nonnull %8, i32 noundef 256) #9
  %19 = load i32, ptr %2, align 4, !tbaa !43
  call void @llvm.lifetime.end.p0(i64 4, ptr nonnull %2) #9
  store i32 %19, ptr %3, align 4, !tbaa !43
  %.pre = load ptr, ptr %5, align 8, !tbaa !4
  br label %20

20:                                               ; preds = %ffi_checkint.exit, %1
  %21 = phi ptr [ %.pre, %ffi_checkint.exit ], [ %6, %1 ]
  %22 = getelementptr inbounds nuw i8, ptr %21, i64 8
  store ptr %22, ptr %5, align 8, !tbaa !4
  %23 = sitofp i32 %4 to double
  store double %23, ptr %21, align 8, !tbaa !23
  ret i32 1
}